; ModuleID = '16/1008.c'
source_filename = "16/1008.c"
target datalayout = "e-m:e-p270:32:32-p271:32:32-p272:64:64-i64:64-f80:128-n8:16:32:64-S128"
target triple = "x86_64-pc-linux-gnu"

@.str = private unnamed_addr constant [3 x i8] c"%d\00", align 1
@.str.1 = private unnamed_addr constant [6 x i8] c"00001\00", align 1
@.str.2 = private unnamed_addr constant [9 x i8] c"%d%d%d%d\00", align 1
@.str.3 = private unnamed_addr constant [7 x i8] c"%d%d%d\00", align 1
@.str.4 = private unnamed_addr constant [5 x i8] c"%d%d\00", align 1

; Function Attrs: noinline nounwind uwtable
define dso_local i32 @main() #0 {
  %1 = alloca i32, align 4
  %2 = alloca i32, align 4
  %3 = alloca i32, align 4
  %4 = alloca i32, align 4
  %5 = alloca i32, align 4
  %6 = alloca i32, align 4
  store i32 0, i32* %1, align 4
  %7 = call i32 (i8*, ...) @__isoc99_scanf(i8* getelementptr inbounds ([3 x i8], [3 x i8]* @.str, i64 0, i64 0), i32* %2)
  %8 = load i32, i32* %2, align 4
  %9 = icmp sgt i32 %8, 9999
  br i1 %9, label %10, label %12

10:                                               ; preds = %0
  %11 = call i32 (i8*, ...) @printf(i8* getelementptr inbounds ([6 x i8], [6 x i8]* @.str.1, i64 0, i64 0))
  br label %12

12:                                               ; preds = %10, %0
  %13 = load i32, i32* %2, align 4
  %14 = icmp sgt i32 %13, 999
  br i1 %14, label %15, label %41

15:                                               ; preds = %12
  %16 = load i32, i32* %2, align 4
  %17 = icmp slt i32 %16, 10000
  br i1 %17, label %18, label %41

18:                                               ; preds = %15
  %19 = load i32, i32* %2, align 4
  %20 = sdiv i32 %19, 1000
  store i32 %20, i32* %3, align 4
  %21 = load i32, i32* %2, align 4
  %22 = load i32, i32* %3, align 4
  %23 = mul nsw i32 %22, 1000
  %24 = sub nsw i32 %21, %23
  %25 = sdiv i32 %24, 100
  store i32 %25, i32* %4, align 4
  %26 = load i32, i32* %2, align 4
  %27 = load i32, i32* %3, align 4
  %28 = mul nsw i32 %27, 1000
  %29 = sub nsw i32 %26, %28
  %30 = load i32, i32* %4, align 4
  %31 = mul nsw i32 %30, 100
  %32 = sub nsw i32 %29, %31
  %33 = sdiv i32 %32, 10
  store i32 %33, i32* %5, align 4
  %34 = load i32, i32* %2, align 4
  %35 = srem i32 %34, 10
  store i32 %35, i32* %6, align 4
  %36 = load i32, i32* %6, align 4
  %37 = load i32, i32* %5, align 4
  %38 = load i32, i32* %4, align 4
  %39 = load i32, i32* %3, align 4
  %40 = call i32 (i8*, ...) @printf(i8* getelementptr inbounds ([9 x i8], [9 x i8]* @.str.2, i64 0, i64 0), i32 %36, i32 %37, i32 %38, i32 %39)
  br label %41

41:                                               ; preds = %18, %15, %12
  %42 = load i32, i32* %2, align 4
  %43 = icmp sgt i32 %42, 99
  br i1 %43, label %44, label %61

44:                                               ; preds = %41
  %45 = load i32, i32* %2, align 4
  %46 = icmp slt i32 %45, 1000
  br i1 %46, label %47, label %61

47:                                               ; preds = %44
  %48 = load i32, i32* %2, align 4
  %49 = sdiv i32 %48, 100
  store i32 %49, i32* %4, align 4
  %50 = load i32, i32* %2, align 4
  %51 = load i32, i32* %4, align 4
  %52 = mul nsw i32 %51, 100
  %53 = sub nsw i32 %50, %52
  %54 = sdiv i32 %53, 10
  store i32 %54, i32* %5, align 4
  %55 = load i32, i32* %2, align 4
  %56 = srem i32 %55, 10
  store i32 %56, i32* %6, align 4
  %57 = load i32, i32* %6, align 4
  %58 = load i32, i32* %5, align 4
  %59 = load i32, i32* %4, align 4
  %60 = call i32 (i8*, ...) @printf(i8* getelementptr inbounds ([7 x i8], [7 x i8]* @.str.3, i64 0, i64 0), i32 %57, i32 %58, i32 %59)
  br label %61

61:                                               ; preds = %47, %44, %41
  %62 = load i32, i32* %2, align 4
  %63 = icmp sgt i32 %62, 9
  br i1 %63, label %64, label %75

64:                                               ; preds = %61
  %65 = load i32, i32* %2, align 4
  %66 = icmp slt i32 %65, 100
  br i1 %66, label %67, label %75

67:                                               ; preds = %64
  %68 = load i32, i32* %2, align 4
  %69 = sdiv i32 %68, 10
  store i32 %69, i32* %5, align 4
  %70 = load i32, i32* %2, align 4
  %71 = srem i32 %70, 10
  store i32 %71, i32* %6, align 4
  %72 = load i32, i32* %6, align 4
  %73 = load i32, i32* %5, align 4
  %74 = call i32 (i8*, ...) @printf(i8* getelementptr inbounds ([5 x i8], [5 x i8]* @.str.4, i64 0, i64 0), i32 %72, i32 %73)
  br label %75

75:                                               ; preds = %67, %64, %61
  %76 = load i32, i32* %2, align 4
  %77 = icmp slt i32 %76, 10
  br i1 %77, label %78, label %81

78:                                               ; preds = %75
  %79 = load i32, i32* %2, align 4
  %80 = call i32 (i8*, ...) @printf(i8* getelementptr inbounds ([3 x i8], [3 x i8]* @.str, i64 0, i64 0), i32 %79)
  br label %81

81:                                               ; preds = %78, %75
  ret i32 0
}

declare dso_local i32 @__isoc99_scanf(i8*, ...) #1

declare dso_local i32 @printf(i8*, ...) #1


!llvm.module.flags = !{!0}
!llvm.ident = !{!1}

!0 = !{i32 1, !"wchar_size", i32 4}
!1 = !{!"clang version 10.0.0-4ubuntu1 "}
