; ModuleID = 'source-C-CXX/15/1008.c'
source_filename = "source-C-CXX/15/1008.c"
target datalayout = "e-m:e-p270:32:32-p271:32:32-p272:64:64-i64:64-f80:128-n8:16:32:64-S128"
target triple = "x86_64-pc-linux-gnu"

@.str = private unnamed_addr constant [3 x i8] c"%d\00", align 1
@.str.1 = private unnamed_addr constant [6 x i8] c"00001\00", align 1
@.str.2 = private unnamed_addr constant [9 x i8] c"%d%d%d%d\00", align 1
@.str.3 = private unnamed_addr constant [7 x i8] c"%d%d%d\00", align 1
@.str.4 = private unnamed_addr constant [5 x i8] c"%d%d\00", align 1

; Function Attrs: nofree nounwind sspstrong uwtable
define dso_local i32 @main() local_unnamed_addr #0 {
  %1 = alloca i32, align 4
  %2 = bitcast i32* %1 to i8*
  call void @llvm.lifetime.start.p0i8(i64 4, i8* nonnull %2) #3
  %3 = call i32 (i8*, ...) @__isoc99_scanf(i8* getelementptr inbounds ([3 x i8], [3 x i8]* @.str, i64 0, i64 0), i32* nonnull %1)
  %4 = load i32, i32* %1, align 4, !tbaa !5
  %5 = icmp sgt i32 %4, 9999
  br i1 %5, label %6, label %9

6:                                                ; preds = %0
  %7 = call i32 (i8*, ...) @printf(i8* nonnull dereferenceable(1) getelementptr inbounds ([6 x i8], [6 x i8]* @.str.1, i64 0, i64 0))
  %8 = load i32, i32* %1, align 4, !tbaa !5
  br label %9

9:                                                ; preds = %6, %0
  %10 = phi i32 [ %8, %6 ], [ %4, %0 ]
  %11 = add i32 %10, -1000
  %12 = icmp ult i32 %11, 9000
  br i1 %12, label %13, label %31

13:                                               ; preds = %9
  %14 = trunc i32 %10 to i16
  %15 = udiv i16 %14, 1000
  %16 = zext i16 %15 to i32
  %17 = mul nsw i32 %16, -1000
  %18 = add nsw i32 %17, %10
  %19 = trunc i32 %18 to i16
  %20 = sdiv i16 %19, 100
  %21 = sext i16 %20 to i32
  %22 = mul nsw i32 %21, -100
  %23 = add nsw i32 %22, %18
  %24 = trunc i32 %23 to i16
  %25 = sdiv i16 %24, 10
  %26 = sext i16 %25 to i32
  %27 = urem i16 %14, 10
  %28 = zext i16 %27 to i32
  %29 = call i32 (i8*, ...) @printf(i8* nonnull dereferenceable(1) getelementptr inbounds ([9 x i8], [9 x i8]* @.str.2, i64 0, i64 0), i32 %28, i32 %26, i32 %21, i32 %16)
  %30 = load i32, i32* %1, align 4, !tbaa !5
  br label %31

31:                                               ; preds = %13, %9
  %32 = phi i32 [ %30, %13 ], [ %10, %9 ]
  %33 = add i32 %32, -100
  %34 = icmp ult i32 %33, 900
  br i1 %34, label %35, label %48

35:                                               ; preds = %31
  %36 = trunc i32 %32 to i16
  %37 = udiv i16 %36, 100
  %38 = zext i16 %37 to i32
  %39 = mul nsw i32 %38, -100
  %40 = add nsw i32 %39, %32
  %41 = trunc i32 %40 to i16
  %42 = sdiv i16 %41, 10
  %43 = sext i16 %42 to i32
  %44 = urem i16 %36, 10
  %45 = zext i16 %44 to i32
  %46 = call i32 (i8*, ...) @printf(i8* nonnull dereferenceable(1) getelementptr inbounds ([7 x i8], [7 x i8]* @.str.3, i64 0, i64 0), i32 %45, i32 %43, i32 %38)
  %47 = load i32, i32* %1, align 4, !tbaa !5
  br label %48

48:                                               ; preds = %35, %31
  %49 = phi i32 [ %47, %35 ], [ %32, %31 ]
  %50 = add i32 %49, -10
  %51 = icmp ult i32 %50, 90
  br i1 %51, label %52, label %60

52:                                               ; preds = %48
  %53 = trunc i32 %49 to i8
  %54 = udiv i8 %53, 10
  %55 = zext i8 %54 to i32
  %56 = urem i8 %53, 10
  %57 = zext i8 %56 to i32
  %58 = call i32 (i8*, ...) @printf(i8* nonnull dereferenceable(1) getelementptr inbounds ([5 x i8], [5 x i8]* @.str.4, i64 0, i64 0), i32 %57, i32 %55)
  %59 = load i32, i32* %1, align 4, !tbaa !5
  br label %60

60:                                               ; preds = %52, %48
  %61 = phi i32 [ %59, %52 ], [ %49, %48 ]
  %62 = icmp slt i32 %61, 10
  br i1 %62, label %63, label %65

63:                                               ; preds = %60
  %64 = call i32 (i8*, ...) @printf(i8* nonnull dereferenceable(1) getelementptr inbounds ([3 x i8], [3 x i8]* @.str, i64 0, i64 0), i32 %61)
  br label %65

65:                                               ; preds = %63, %60
  call void @llvm.lifetime.end.p0i8(i64 4, i8* nonnull %2) #3
  ret i32 0
}

; Function Attrs: argmemonly mustprogress nofree nosync nounwind willreturn
declare void @llvm.lifetime.start.p0i8(i64 immarg, i8* nocapture) #1

; Function Attrs: nofree nounwind
declare noundef i32 @__isoc99_scanf(i8* nocapture noundef readonly, ...) local_unnamed_addr #2

; Function Attrs: nofree nounwind
declare noundef i32 @printf(i8* nocapture noundef readonly, ...) local_unnamed_addr #2

; Function Attrs: argmemonly mustprogress nofree nosync nounwind willreturn
declare void @llvm.lifetime.end.p0i8(i64 immarg, i8* nocapture) #1


!llvm.module.flags = !{!0, !1, !2, !3}
!llvm.ident = !{!4}

!0 = !{i32 1, !"wchar_size", i32 4}
!1 = !{i32 7, !"PIC Level", i32 2}
!2 = !{i32 7, !"PIE Level", i32 2}
!3 = !{i32 7, !"uwtable", i32 1}
!4 = !{!"clang version 13.0.0"}
!5 = !{!6, !6, i64 0}
!6 = !{!"int", !7, i64 0}
!7 = !{!"omnipotent char", !8, i64 0}
!8 = !{!"Simple C/C++ TBAA"}
